; ModuleID = 'source-C-CXX/51/6104.c'
source_filename = "source-C-CXX/51/6104.c"
target datalayout = "e-m:e-p270:32:32-p271:32:32-p272:64:64-i64:64-f80:128-n8:16:32:64-S128"
target triple = "x86_64-pc-linux-gnu"

@.str = private unnamed_addr constant [6 x i8] c"%d %d\00", align 1
@.str.1 = private unnamed_addr constant [3 x i8] c"%d\00", align 1
@.str.2 = private unnamed_addr constant [4 x i8] c"%d \00", align 1

; Function Attrs: nofree nounwind sspstrong uwtable
define dso_local i32 @main() local_unnamed_addr #0 {
  %1 = alloca [101 x i32], align 16
  %2 = alloca i32, align 4
  %3 = alloca i32, align 4
  %4 = bitcast [101 x i32]* %1 to i8*
  call void @llvm.lifetime.start.p0i8(i64 404, i8* nonnull %4) #4
  call void @llvm.memset.p0i8.i64(i8* noundef nonnull align 16 dereferenceable(404) %4, i8 0, i64 404, i1 false)
  %5 = bitcast i32* %2 to i8*
  call void @llvm.lifetime.start.p0i8(i64 4, i8* nonnull %5) #4
  %6 = bitcast i32* %3 to i8*
  call void @llvm.lifetime.start.p0i8(i64 4, i8* nonnull %6) #4
  %7 = call i32 (i8*, ...) @__isoc99_scanf(i8* getelementptr inbounds ([6 x i8], [6 x i8]* @.str, i64 0, i64 0), i32* nonnull %2, i32* nonnull %3)
  %8 = load i32, i32* %2, align 4, !tbaa !5
  %9 = icmp sgt i32 %8, 0
  br i1 %9, label %131, label %10

10:                                               ; preds = %131, %0
  %11 = phi i32 [ %8, %0 ], [ %136, %131 ]
  %12 = load i32, i32* %3, align 4, !tbaa !5
  %13 = sub i32 %11, %12
  %14 = icmp sgt i32 %13, 0
  br i1 %14, label %15, label %162

15:                                               ; preds = %10
  %16 = sext i32 %11 to i64
  %17 = zext i32 %13 to i64
  %18 = icmp ult i32 %13, 8
  br i1 %18, label %112, label %19

19:                                               ; preds = %15
  %20 = getelementptr [101 x i32], [101 x i32]* %1, i64 0, i64 %16
  %21 = add nsw i64 %16, %17
  %22 = getelementptr [101 x i32], [101 x i32]* %1, i64 0, i64 %21
  %23 = getelementptr [101 x i32], [101 x i32]* %1, i64 0, i64 %17
  %24 = icmp ult i32* %20, %23
  %25 = bitcast i32* %22 to [101 x i32]*
  %26 = icmp ult [101 x i32]* %1, %25
  %27 = and i1 %24, %26
  br i1 %27, label %112, label %28

28:                                               ; preds = %19
  %29 = and i64 %17, 4294967288
  %30 = add nsw i64 %29, -8
  %31 = lshr exact i64 %30, 3
  %32 = add nuw nsw i64 %31, 1
  %33 = and i64 %32, 3
  %34 = icmp ult i64 %30, 24
  br i1 %34, label %90, label %35

35:                                               ; preds = %28
  %36 = and i64 %32, 4611686018427387900
  br label %37

37:                                               ; preds = %37, %35
  %38 = phi i64 [ 0, %35 ], [ %87, %37 ]
  %39 = phi i64 [ %36, %35 ], [ %88, %37 ]
  %40 = getelementptr inbounds [101 x i32], [101 x i32]* %1, i64 0, i64 %38
  %41 = bitcast i32* %40 to <4 x i32>*
  %42 = load <4 x i32>, <4 x i32>* %41, align 16, !tbaa !5, !alias.scope !9
  %43 = getelementptr inbounds i32, i32* %40, i64 4
  %44 = bitcast i32* %43 to <4 x i32>*
  %45 = load <4 x i32>, <4 x i32>* %44, align 16, !tbaa !5, !alias.scope !9
  %46 = add nsw i64 %38, %16
  %47 = getelementptr inbounds [101 x i32], [101 x i32]* %1, i64 0, i64 %46
  %48 = bitcast i32* %47 to <4 x i32>*
  store <4 x i32> %42, <4 x i32>* %48, align 4, !tbaa !5, !alias.scope !12, !noalias !9
  %49 = getelementptr inbounds i32, i32* %47, i64 4
  %50 = bitcast i32* %49 to <4 x i32>*
  store <4 x i32> %45, <4 x i32>* %50, align 4, !tbaa !5, !alias.scope !12, !noalias !9
  %51 = or i64 %38, 8
  %52 = getelementptr inbounds [101 x i32], [101 x i32]* %1, i64 0, i64 %51
  %53 = bitcast i32* %52 to <4 x i32>*
  %54 = load <4 x i32>, <4 x i32>* %53, align 16, !tbaa !5, !alias.scope !9
  %55 = getelementptr inbounds i32, i32* %52, i64 4
  %56 = bitcast i32* %55 to <4 x i32>*
  %57 = load <4 x i32>, <4 x i32>* %56, align 16, !tbaa !5, !alias.scope !9
  %58 = add nsw i64 %51, %16
  %59 = getelementptr inbounds [101 x i32], [101 x i32]* %1, i64 0, i64 %58
  %60 = bitcast i32* %59 to <4 x i32>*
  store <4 x i32> %54, <4 x i32>* %60, align 4, !tbaa !5, !alias.scope !12, !noalias !9
  %61 = getelementptr inbounds i32, i32* %59, i64 4
  %62 = bitcast i32* %61 to <4 x i32>*
  store <4 x i32> %57, <4 x i32>* %62, align 4, !tbaa !5, !alias.scope !12, !noalias !9
  %63 = or i64 %38, 16
  %64 = getelementptr inbounds [101 x i32], [101 x i32]* %1, i64 0, i64 %63
  %65 = bitcast i32* %64 to <4 x i32>*
  %66 = load <4 x i32>, <4 x i32>* %65, align 16, !tbaa !5, !alias.scope !9
  %67 = getelementptr inbounds i32, i32* %64, i64 4
  %68 = bitcast i32* %67 to <4 x i32>*
  %69 = load <4 x i32>, <4 x i32>* %68, align 16, !tbaa !5, !alias.scope !9
  %70 = add nsw i64 %63, %16
  %71 = getelementptr inbounds [101 x i32], [101 x i32]* %1, i64 0, i64 %70
  %72 = bitcast i32* %71 to <4 x i32>*
  store <4 x i32> %66, <4 x i32>* %72, align 4, !tbaa !5, !alias.scope !12, !noalias !9
  %73 = getelementptr inbounds i32, i32* %71, i64 4
  %74 = bitcast i32* %73 to <4 x i32>*
  store <4 x i32> %69, <4 x i32>* %74, align 4, !tbaa !5, !alias.scope !12, !noalias !9
  %75 = or i64 %38, 24
  %76 = getelementptr inbounds [101 x i32], [101 x i32]* %1, i64 0, i64 %75
  %77 = bitcast i32* %76 to <4 x i32>*
  %78 = load <4 x i32>, <4 x i32>* %77, align 16, !tbaa !5, !alias.scope !9
  %79 = getelementptr inbounds i32, i32* %76, i64 4
  %80 = bitcast i32* %79 to <4 x i32>*
  %81 = load <4 x i32>, <4 x i32>* %80, align 16, !tbaa !5, !alias.scope !9
  %82 = add nsw i64 %75, %16
  %83 = getelementptr inbounds [101 x i32], [101 x i32]* %1, i64 0, i64 %82
  %84 = bitcast i32* %83 to <4 x i32>*
  store <4 x i32> %78, <4 x i32>* %84, align 4, !tbaa !5, !alias.scope !12, !noalias !9
  %85 = getelementptr inbounds i32, i32* %83, i64 4
  %86 = bitcast i32* %85 to <4 x i32>*
  store <4 x i32> %81, <4 x i32>* %86, align 4, !tbaa !5, !alias.scope !12, !noalias !9
  %87 = add nuw i64 %38, 32
  %88 = add i64 %39, -4
  %89 = icmp eq i64 %88, 0
  br i1 %89, label %90, label %37, !llvm.loop !14

90:                                               ; preds = %37, %28
  %91 = phi i64 [ 0, %28 ], [ %87, %37 ]
  %92 = icmp eq i64 %33, 0
  br i1 %92, label %110, label %93

93:                                               ; preds = %90, %93
  %94 = phi i64 [ %107, %93 ], [ %91, %90 ]
  %95 = phi i64 [ %108, %93 ], [ %33, %90 ]
  %96 = getelementptr inbounds [101 x i32], [101 x i32]* %1, i64 0, i64 %94
  %97 = bitcast i32* %96 to <4 x i32>*
  %98 = load <4 x i32>, <4 x i32>* %97, align 16, !tbaa !5, !alias.scope !9
  %99 = getelementptr inbounds i32, i32* %96, i64 4
  %100 = bitcast i32* %99 to <4 x i32>*
  %101 = load <4 x i32>, <4 x i32>* %100, align 16, !tbaa !5, !alias.scope !9
  %102 = add nsw i64 %94, %16
  %103 = getelementptr inbounds [101 x i32], [101 x i32]* %1, i64 0, i64 %102
  %104 = bitcast i32* %103 to <4 x i32>*
  store <4 x i32> %98, <4 x i32>* %104, align 4, !tbaa !5, !alias.scope !12, !noalias !9
  %105 = getelementptr inbounds i32, i32* %103, i64 4
  %106 = bitcast i32* %105 to <4 x i32>*
  store <4 x i32> %101, <4 x i32>* %106, align 4, !tbaa !5, !alias.scope !12, !noalias !9
  %107 = add nuw i64 %94, 8
  %108 = add i64 %95, -1
  %109 = icmp eq i64 %108, 0
  br i1 %109, label %110, label %93, !llvm.loop !17

110:                                              ; preds = %93, %90
  %111 = icmp eq i64 %29, %17
  br i1 %111, label %162, label %112

112:                                              ; preds = %19, %15, %110
  %113 = phi i64 [ 0, %19 ], [ 0, %15 ], [ %29, %110 ]
  %114 = xor i64 %113, -1
  %115 = add nsw i64 %114, %17
  %116 = and i64 %17, 3
  %117 = icmp eq i64 %116, 0
  br i1 %117, label %128, label %118

118:                                              ; preds = %112, %118
  %119 = phi i64 [ %125, %118 ], [ %113, %112 ]
  %120 = phi i64 [ %126, %118 ], [ %116, %112 ]
  %121 = getelementptr inbounds [101 x i32], [101 x i32]* %1, i64 0, i64 %119
  %122 = load i32, i32* %121, align 4, !tbaa !5
  %123 = add nsw i64 %119, %16
  %124 = getelementptr inbounds [101 x i32], [101 x i32]* %1, i64 0, i64 %123
  store i32 %122, i32* %124, align 4, !tbaa !5
  %125 = add nuw nsw i64 %119, 1
  %126 = add i64 %120, -1
  %127 = icmp eq i64 %126, 0
  br i1 %127, label %128, label %118, !llvm.loop !19

128:                                              ; preds = %118, %112
  %129 = phi i64 [ %113, %112 ], [ %125, %118 ]
  %130 = icmp ult i64 %115, 3
  br i1 %130, label %162, label %139

131:                                              ; preds = %0, %131
  %132 = phi i64 [ %135, %131 ], [ 0, %0 ]
  %133 = getelementptr inbounds [101 x i32], [101 x i32]* %1, i64 0, i64 %132
  %134 = call i32 (i8*, ...) @__isoc99_scanf(i8* getelementptr inbounds ([3 x i8], [3 x i8]* @.str.1, i64 0, i64 0), i32* nonnull %133)
  %135 = add nuw nsw i64 %132, 1
  %136 = load i32, i32* %2, align 4, !tbaa !5
  %137 = sext i32 %136 to i64
  %138 = icmp slt i64 %135, %137
  br i1 %138, label %131, label %10, !llvm.loop !20

139:                                              ; preds = %128, %139
  %140 = phi i64 [ %160, %139 ], [ %129, %128 ]
  %141 = getelementptr inbounds [101 x i32], [101 x i32]* %1, i64 0, i64 %140
  %142 = load i32, i32* %141, align 4, !tbaa !5
  %143 = add nsw i64 %140, %16
  %144 = getelementptr inbounds [101 x i32], [101 x i32]* %1, i64 0, i64 %143
  store i32 %142, i32* %144, align 4, !tbaa !5
  %145 = add nuw nsw i64 %140, 1
  %146 = getelementptr inbounds [101 x i32], [101 x i32]* %1, i64 0, i64 %145
  %147 = load i32, i32* %146, align 4, !tbaa !5
  %148 = add nsw i64 %145, %16
  %149 = getelementptr inbounds [101 x i32], [101 x i32]* %1, i64 0, i64 %148
  store i32 %147, i32* %149, align 4, !tbaa !5
  %150 = add nuw nsw i64 %140, 2
  %151 = getelementptr inbounds [101 x i32], [101 x i32]* %1, i64 0, i64 %150
  %152 = load i32, i32* %151, align 4, !tbaa !5
  %153 = add nsw i64 %150, %16
  %154 = getelementptr inbounds [101 x i32], [101 x i32]* %1, i64 0, i64 %153
  store i32 %152, i32* %154, align 4, !tbaa !5
  %155 = add nuw nsw i64 %140, 3
  %156 = getelementptr inbounds [101 x i32], [101 x i32]* %1, i64 0, i64 %155
  %157 = load i32, i32* %156, align 4, !tbaa !5
  %158 = add nsw i64 %155, %16
  %159 = getelementptr inbounds [101 x i32], [101 x i32]* %1, i64 0, i64 %158
  store i32 %157, i32* %159, align 4, !tbaa !5
  %160 = add nuw nsw i64 %140, 4
  %161 = icmp eq i64 %160, %17
  br i1 %161, label %162, label %139, !llvm.loop !21

162:                                              ; preds = %128, %139, %110, %10
  %163 = shl nsw i32 %11, 1
  %164 = xor i32 %12, -1
  %165 = add i32 %163, %164
  %166 = icmp slt i32 %13, %165
  br i1 %166, label %167, label %177

167:                                              ; preds = %162
  %168 = sext i32 %13 to i64
  br label %169

169:                                              ; preds = %167, %169
  %170 = phi i64 [ %168, %167 ], [ %174, %169 ]
  %171 = getelementptr inbounds [101 x i32], [101 x i32]* %1, i64 0, i64 %170
  %172 = load i32, i32* %171, align 4, !tbaa !5
  %173 = call i32 (i8*, ...) @printf(i8* nonnull dereferenceable(1) getelementptr inbounds ([4 x i8], [4 x i8]* @.str.2, i64 0, i64 0), i32 %172)
  %174 = add nsw i64 %170, 1
  %175 = trunc i64 %174 to i32
  %176 = icmp eq i32 %165, %175
  br i1 %176, label %177, label %169, !llvm.loop !22

177:                                              ; preds = %169, %162
  %178 = sext i32 %165 to i64
  %179 = getelementptr inbounds [101 x i32], [101 x i32]* %1, i64 0, i64 %178
  %180 = load i32, i32* %179, align 4, !tbaa !5
  %181 = call i32 (i8*, ...) @printf(i8* nonnull dereferenceable(1) getelementptr inbounds ([3 x i8], [3 x i8]* @.str.1, i64 0, i64 0), i32 %180)
  call void @llvm.lifetime.end.p0i8(i64 4, i8* nonnull %6) #4
  call void @llvm.lifetime.end.p0i8(i64 4, i8* nonnull %5) #4
  call void @llvm.lifetime.end.p0i8(i64 404, i8* nonnull %4) #4
  ret i32 0
}

; Function Attrs: argmemonly mustprogress nofree nosync nounwind willreturn
declare void @llvm.lifetime.start.p0i8(i64 immarg, i8* nocapture) #1

; Function Attrs: argmemonly mustprogress nofree nounwind willreturn writeonly
declare void @llvm.memset.p0i8.i64(i8* nocapture writeonly, i8, i64, i1 immarg) #2

; Function Attrs: nofree nounwind
declare noundef i32 @__isoc99_scanf(i8* nocapture noundef readonly, ...) local_unnamed_addr #3

; Function Attrs: nofree nounwind
declare noundef i32 @printf(i8* nocapture noundef readonly, ...) local_unnamed_addr #3

; Function Attrs: argmemonly mustprogress nofree nosync nounwind willreturn
declare void @llvm.lifetime.end.p0i8(i64 immarg, i8* nocapture) #1


!llvm.module.flags = !{!0, !1, !2, !3}
!llvm.ident = !{!4}

!0 = !{i32 1, !"wchar_size", i32 4}
!1 = !{i32 7, !"PIC Level", i32 2}
!2 = !{i32 7, !"PIE Level", i32 2}
!3 = !{i32 7, !"uwtable", i32 1}
!4 = !{!"clang version 13.0.0"}
!5 = !{!6, !6, i64 0}
!6 = !{!"int", !7, i64 0}
!7 = !{!"omnipotent char", !8, i64 0}
!8 = !{!"Simple C/C++ TBAA"}
!9 = !{!10}
!10 = distinct !{!10, !11}
!11 = distinct !{!11, !"LVerDomain"}
!12 = !{!13}
!13 = distinct !{!13, !11}
!14 = distinct !{!14, !15, !16}
!15 = !{!"llvm.loop.mustprogress"}
!16 = !{!"llvm.loop.isvectorized", i32 1}
!17 = distinct !{!17, !18}
!18 = !{!"llvm.loop.unroll.disable"}
!19 = distinct !{!19, !18}
!20 = distinct !{!20, !15}
!21 = distinct !{!21, !15, !16}
!22 = distinct !{!22, !15}
